; Function Attrs: mustprogress uwtable
define void @_ZN10open_spiel10algorithms26DeterministicTabularPolicyC2ERKNS_4GameEi(ptr noundef nonnull align 8 dereferenceable(60) %0, ptr noundef nonnull align 8 dereferenceable(280) %1, i32 noundef %2) unnamed_addr #3 align 2 personality ptr @__gxx_personality_v0 {
  store ptr getelementptr inbounds inrange(-16, 80) (i8, ptr @_ZTVN10open_spiel10algorithms26DeterministicTabularPolicyE, i64 16), ptr %0, align 8
  %4 = getelementptr inbounds nuw i8, ptr %0, i64 8
  %5 = getelementptr inbounds i8, ptr %0, i64 16
  %6 = getelementptr inbounds i8, ptr %0, i64 32
  tail call void @llvm.memset.p0.i64(ptr noundef nonnull align 8 dereferenceable(24) %4, i8 0, i64 24, i1 false)
  store ptr %5, ptr %6, align 8
  %7 = getelementptr inbounds i8, ptr %0, i64 40
  store ptr %5, ptr %7, align 8
  %8 = getelementptr inbounds i8, ptr %0, i64 48
  store i64 0, ptr %8, align 8
  %9 = getelementptr inbounds nuw i8, ptr %0, i64 56
  store i32 %2, ptr %9, align 8
  invoke void @_ZN10open_spiel10algorithms26DeterministicTabularPolicy11CreateTableERKNS_4GameEi(ptr noundef nonnull align 8 dereferenceable(60) %0, ptr noundef nonnull align 8 dereferenceable(280) %1, i32 noundef %2)
          to label %10 unwind label %11

10:                                               ; preds = %3
  ret void

11:                                               ; preds = %3
  %12 = landingpad { ptr, i32 }
          cleanup
  tail call void @_ZNSt3mapINSt7__cxx1112basic_stringIcSt11char_traitsIcESaIcEEEN10open_spiel10algorithms15LegalsWithIndexESt4lessIS5_ESaISt4pairIKS5_S8_EEED2Ev(ptr noundef nonnull align 8 dereferenceable(48) %4) #22
  resume { ptr, i32 } %12
}